(dp1
S'OriginalConfig'
p2
ccopy_reg
_reconstructor
p3
(cWMCore.Configuration
Configuration
p4
c__builtin__
object
p5
NtRp6
(dp7
S'Site'
p8
g3
(cWMCore.Configuration
ConfigSection
p9
g5
NtRp10
(dp11
S'_internal_skipChecks'
p12
I00
sS'_internal_documentation'
p13
S''
sS'_internal_settings'
p14
c__builtin__
set
p15
((lp16
S'storageSite'
p17
atRp18
sS'_internal_name'
p19
g8
sS'_internal_docstrings'
p20
(dp21
sS'_internal_children'
p22
g15
((ltRp23
sg17
S'T2_US_Vanderbilt'
p24
sS'_internal_parent_ref'
p25
NsbsS'_internal_sections'
p26
(lp27
S'General'
p28
aS'JobType'
p29
aS'Data'
p30
aS'User'
p31
ag8
asg28
g3
(g9
g5
NtRp32
(dp33
S'workArea'
p34
S'crab_projects'
p35
sg12
I00
sg13
S''
sg14
g15
((lp36
g34
aS'transferOutputs'
p37
aS'transferLogs'
p38
aS'requestName'
p39
atRp40
sg19
g28
sg20
(dp41
sg37
I01
sg22
g15
((ltRp42
sg39
S'PbPb2018_vn_MB0'
p43
sg25
Nsg38
I01
sbsS'_internal_webapps'
p44
(lp45
sg31
g3
(g9
g5
NtRp46
(dp47
g12
I00
sg13
S''
sg14
g15
((ltRp48
sg19
g31
sg20
(dp49
sg22
g15
((ltRp50
sg25
NsbsS'_internal_components'
p51
(lp52
sg30
g3
(g9
g5
NtRp53
(dp54
S'inputDataset'
p55
S'/HIMinimumBias0/HIRun2018A-PromptReco-v1/AOD'
p56
sS'allowNonValidInputDataset'
p57
I01
sg12
I00
sS'unitsPerJob'
p58
I50
sg13
S''
sg14
g15
((lp59
g55
ag57
aS'publication'
p60
ag58
aS'splitting'
p61
aS'lumiMask'
p62
aS'outLFNDirBase'
p63
aS'runRange'
p64
atRp65
sg19
g30
sg61
S'LumiBased'
p66
sg20
(dp67
sg22
g15
((ltRp68
sg63
S'/store/user/ssanders/PbPb2018_vn_MB0'
p69
sg25
Nsg62
S'json_DCSONLY_HI.txt'
p70
sg64
S'326523-326965'
p71
sg60
I00
sbsg29
g3
(g9
g5
NtRp72
(dp73
S'outputFiles'
p74
(lp75
S'vnanal.root'
p76
asg12
I00
sS'pyCfgParams'
p77
(lp78
S'noprint'
p79
aS'lumifile=json_DCSONLY_HI.txt'
p80
aS'offset=offset_PbPb2018_1_600000.root'
p81
aS'dbfile=HeavyIonRPRcd_PbPb2018_offline.db'
p82
asg13
S''
sg14
g15
((lp83
g74
ag77
aS'pluginName'
p84
aS'allowUndistributedCMSSW'
p85
aS'psetName'
p86
aS'inputFiles'
p87
aS'maxJobRuntimeMin'
p88
atRp89
sg19
g29
sg87
(lp90
g70
aS'HeavyIonRPRcd_PbPb2018_offline.db'
p91
aS'offset_PbPb2018_1_600000.root'
p92
asg20
(dp93
sg84
S'Analysis'
p94
sg22
g15
((ltRp95
sg85
I01
sg86
S'/home/sanders/PbPb_2018_default/VNAnalysis/vnanalysis_cfg.py'
p96
sg25
Nsg88
I1350
sbsbsS'voGroup'
p97
S''
sS'Server'
p98
S'cmsweb.cern.ch'
p99
sS'instance'
p100
S'prod'
p101
sS'RequestName'
p102
V181130_162654:ssanders_crab_PbPb2018_vn_MB0
p103
sS'voRole'
p104
S'NULL'
p105
sS'Port'
p106
S''
s.